; ModuleID = '47/5234.c'
source_filename = "47/5234.c"
target datalayout = "e-m:e-p270:32:32-p271:32:32-p272:64:64-i64:64-f80:128-n8:16:32:64-S128"
target triple = "x86_64-pc-linux-gnu"

@.str = private unnamed_addr constant [3 x i8] c"%d\00", align 1
@.str.1 = private unnamed_addr constant [4 x i8] c" %d\00", align 1

; Function Attrs: noinline nounwind uwtable
define dso_local i32 @main() #0 {
  %1 = alloca i32, align 4
  %2 = alloca i32, align 4
  %3 = alloca i32, align 4
  %4 = alloca i32, align 4
  %5 = alloca i32*, align 8
  store i32 0, i32* %1, align 4
  %6 = call i32 (i8*, ...) @__isoc99_scanf(i8* getelementptr inbounds ([3 x i8], [3 x i8]* @.str, i64 0, i64 0), i32* %2)
  %7 = load i32, i32* %2, align 4
  %8 = sext i32 %7 to i64
  %9 = mul i64 4, %8
  %10 = call noalias i8* @malloc(i64 %9) #3
  %11 = bitcast i8* %10 to i32*
  store i32* %11, i32** %5, align 8
  store i32 0, i32* %3, align 4
  br label %12

12:                                               ; preds = %22, %0
  %13 = load i32, i32* %3, align 4
  %14 = load i32, i32* %2, align 4
  %15 = icmp slt i32 %13, %14
  br i1 %15, label %16, label %25

16:                                               ; preds = %12
  %17 = load i32*, i32** %5, align 8
  %18 = load i32, i32* %3, align 4
  %19 = sext i32 %18 to i64
  %20 = getelementptr inbounds i32, i32* %17, i64 %19
  %21 = call i32 (i8*, ...) @__isoc99_scanf(i8* getelementptr inbounds ([3 x i8], [3 x i8]* @.str, i64 0, i64 0), i32* %20)
  br label %22

22:                                               ; preds = %16
  %23 = load i32, i32* %3, align 4
  %24 = add nsw i32 %23, 1
  store i32 %24, i32* %3, align 4
  br label %12

25:                                               ; preds = %12
  store i32 0, i32* %3, align 4
  br label %26

26:                                               ; preds = %57, %25
  %27 = load i32, i32* %3, align 4
  %28 = load i32, i32* %2, align 4
  %29 = sdiv i32 %28, 2
  %30 = icmp slt i32 %27, %29
  br i1 %30, label %31, label %60

31:                                               ; preds = %26
  %32 = load i32*, i32** %5, align 8
  %33 = load i32, i32* %3, align 4
  %34 = sext i32 %33 to i64
  %35 = getelementptr inbounds i32, i32* %32, i64 %34
  %36 = load i32, i32* %35, align 4
  store i32 %36, i32* %4, align 4
  %37 = load i32*, i32** %5, align 8
  %38 = load i32, i32* %2, align 4
  %39 = sub nsw i32 %38, 1
  %40 = load i32, i32* %3, align 4
  %41 = sub nsw i32 %39, %40
  %42 = sext i32 %41 to i64
  %43 = getelementptr inbounds i32, i32* %37, i64 %42
  %44 = load i32, i32* %43, align 4
  %45 = load i32*, i32** %5, align 8
  %46 = load i32, i32* %3, align 4
  %47 = sext i32 %46 to i64
  %48 = getelementptr inbounds i32, i32* %45, i64 %47
  store i32 %44, i32* %48, align 4
  %49 = load i32, i32* %4, align 4
  %50 = load i32*, i32** %5, align 8
  %51 = load i32, i32* %2, align 4
  %52 = sub nsw i32 %51, 1
  %53 = load i32, i32* %3, align 4
  %54 = sub nsw i32 %52, %53
  %55 = sext i32 %54 to i64
  %56 = getelementptr inbounds i32, i32* %50, i64 %55
  store i32 %49, i32* %56, align 4
  br label %57

57:                                               ; preds = %31
  %58 = load i32, i32* %3, align 4
  %59 = add nsw i32 %58, 1
  store i32 %59, i32* %3, align 4
  br label %26

60:                                               ; preds = %26
  %61 = load i32*, i32** %5, align 8
  %62 = getelementptr inbounds i32, i32* %61, i64 0
  %63 = load i32, i32* %62, align 4
  %64 = call i32 (i8*, ...) @printf(i8* getelementptr inbounds ([3 x i8], [3 x i8]* @.str, i64 0, i64 0), i32 %63)
  store i32 1, i32* %3, align 4
  br label %65

65:                                               ; preds = %76, %60
  %66 = load i32, i32* %3, align 4
  %67 = load i32, i32* %2, align 4
  %68 = icmp slt i32 %66, %67
  br i1 %68, label %69, label %79

69:                                               ; preds = %65
  %70 = load i32*, i32** %5, align 8
  %71 = load i32, i32* %3, align 4
  %72 = sext i32 %71 to i64
  %73 = getelementptr inbounds i32, i32* %70, i64 %72
  %74 = load i32, i32* %73, align 4
  %75 = call i32 (i8*, ...) @printf(i8* getelementptr inbounds ([4 x i8], [4 x i8]* @.str.1, i64 0, i64 0), i32 %74)
  br label %76

76:                                               ; preds = %69
  %77 = load i32, i32* %3, align 4
  %78 = add nsw i32 %77, 1
  store i32 %78, i32* %3, align 4
  br label %65

79:                                               ; preds = %65
  %80 = load i32*, i32** %5, align 8
  %81 = bitcast i32* %80 to i8*
  call void @free(i8* %81) #3
  ret i32 0
}

declare dso_local i32 @__isoc99_scanf(i8*, ...) #1

; Function Attrs: nounwind
declare dso_local noalias i8* @malloc(i64) #2

declare dso_local i32 @printf(i8*, ...) #1

; Function Attrs: nounwind
declare dso_local void @free(i8*) #2


!llvm.module.flags = !{!0}
!llvm.ident = !{!1}

!0 = !{i32 1, !"wchar_size", i32 4}
!1 = !{!"clang version 10.0.0-4ubuntu1 "}
